; Function Attrs: nounwind uwtable
define ptr @initialize_Lake_Toml_Data_Dict(i8 noundef zeroext %0, ptr noundef readnone captures(none) %1) local_unnamed_addr #0 {
  %.b8 = load i1, ptr @_G_initialized, align 1
  br i1 %.b8, label %3, label %7

3:                                                ; preds = %2
  tail call void @lean_inc_heartbeat() #5
  %4 = tail call noalias ptr @mi_malloc_small(i64 noundef 24) #5
  %5 = icmp eq ptr %4, null
  br i1 %5, label %6, label %.sink.split

6:                                                ; preds = %3
  tail call void @lean_internal_panic_out_of_memory() #6
  unreachable

7:                                                ; preds = %2
  store i1 true, ptr @_G_initialized, align 1
  %8 = tail call ptr @initialize_Lean_Data_NameMap(i8 noundef zeroext %0, ptr noundef nonnull inttoptr (i64 1 to ptr)) #5
  %9 = getelementptr i8, ptr %8, i64 4
  %.val = load i32, ptr %9, align 4
  %.mask.i = and i32 %.val, -16777216
  %10 = icmp eq i32 %.mask.i, 16777216
  br i1 %10, label %41, label %11

11:                                               ; preds = %7
  %12 = load i32, ptr %8, align 4, !tbaa !8
  %13 = icmp sgt i32 %12, 1
  br i1 %13, label %14, label %16, !prof !13

14:                                               ; preds = %11
  %15 = add nsw i32 %12, -1
  store i32 %15, ptr %8, align 4, !tbaa !8
  br label %lean_dec_ref.exit10

16:                                               ; preds = %11
  %.not.i9 = icmp eq i32 %12, 0
  br i1 %.not.i9, label %lean_dec_ref.exit10, label %17

17:                                               ; preds = %16
  tail call void @lean_dec_ref_cold(ptr noundef nonnull %8) #5
  br label %lean_dec_ref.exit10

lean_dec_ref.exit10:                              ; preds = %14, %16, %17
  %18 = tail call ptr @initialize_Init_Data_Nat_Fold(i8 noundef zeroext %0, ptr noundef nonnull inttoptr (i64 1 to ptr)) #5
  %19 = getelementptr i8, ptr %18, i64 4
  %.val11 = load i32, ptr %19, align 4
  %.mask.i12 = and i32 %.val11, -16777216
  %20 = icmp eq i32 %.mask.i12, 16777216
  br i1 %20, label %41, label %21

21:                                               ; preds = %lean_dec_ref.exit10
  %22 = load i32, ptr %18, align 4, !tbaa !8
  %23 = icmp sgt i32 %22, 1
  br i1 %23, label %24, label %26, !prof !13

24:                                               ; preds = %21
  %25 = add nsw i32 %22, -1
  store i32 %25, ptr %18, align 4, !tbaa !8
  br label %lean_dec_ref.exit

26:                                               ; preds = %21
  %.not.i = icmp eq i32 %22, 0
  br i1 %.not.i, label %lean_dec_ref.exit, label %27

27:                                               ; preds = %26
  tail call void @lean_dec_ref_cold(ptr noundef nonnull %18) #5
  br label %lean_dec_ref.exit

lean_dec_ref.exit:                                ; preds = %24, %26, %27
  %28 = tail call ptr @lean_alloc_object(i64 noundef 24) #5
  store i32 1, ptr %28, align 4, !tbaa !8
  %29 = getelementptr inbounds nuw i8, ptr %28, i64 4
  %30 = load i32, ptr %29, align 4
  %31 = and i32 %30, 65535
  %32 = or disjoint i32 %31, -167772160
  store i32 %32, ptr %29, align 4
  %33 = getelementptr inbounds nuw i8, ptr %28, i64 8
  tail call void @llvm.memset.p0.i64(ptr noundef nonnull align 8 dereferenceable(16) %33, i8 0, i64 16, i1 false)
  store ptr %28, ptr @l_Lake_Toml_instInhabitedRBDict___rarg___closed__1, align 8, !tbaa !4
  tail call void @lean_mark_persistent(ptr noundef nonnull %28) #5
  %34 = tail call ptr @lean_array_mk(ptr noundef nonnull inttoptr (i64 1 to ptr)) #5
  store ptr %34, ptr @l_Lake_Toml_RBDict_empty___rarg___closed__1, align 8, !tbaa !4
  tail call void @lean_mark_persistent(ptr noundef %34) #5
  tail call void @lean_inc_heartbeat() #5
  %35 = tail call noalias ptr @mi_malloc_small(i64 noundef 24) #5
  %36 = icmp eq ptr %35, null
  br i1 %36, label %37, label %.sink.split

37:                                               ; preds = %lean_dec_ref.exit
  tail call void @lean_internal_panic_out_of_memory() #6
  unreachable

.sink.split:                                      ; preds = %lean_dec_ref.exit, %3
  %.sink17 = phi ptr [ %4, %3 ], [ %35, %lean_dec_ref.exit ]
  %38 = getelementptr inbounds nuw i8, ptr %.sink17, i64 4
  store i32 1, ptr %.sink17, align 4, !tbaa !8
  store i32 131096, ptr %38, align 4
  %39 = getelementptr inbounds nuw i8, ptr %.sink17, i64 8
  store ptr inttoptr (i64 1 to ptr), ptr %39, align 8, !tbaa !4
  %40 = getelementptr inbounds nuw i8, ptr %.sink17, i64 16
  store ptr inttoptr (i64 1 to ptr), ptr %40, align 8, !tbaa !4
  br label %41

41:                                               ; preds = %.sink.split, %lean_dec_ref.exit10, %7
  %.0 = phi ptr [ %8, %7 ], [ %18, %lean_dec_ref.exit10 ], [ %.sink17, %.sink.split ]
  ret ptr %.0
}